(dp1
S'files'
p2
(dp3
S'test_unit_test_soap_server'
p4
(dp5
S'index'
p6
(dp7
S'par'
p8
I0
sS'html_filename'
p9
S'test_unit_test_soap_server.html'
p10
sS'name'
p11
S'test/unit/test_soap_server'
p12
sS'nums'
p13
ccopy_reg
_reconstructor
p14
(ccoverage.results
Numbers
p15
c__builtin__
object
p16
NtRp17
(dp18
S'n_files'
p19
I1
sS'n_branches'
p20
I0
sS'n_statements'
p21
I4
sS'n_excluded'
p22
I0
sS'n_missing'
p23
I1
sS'n_missing_branches'
p24
I0
sbssS'hash'
p25
S'n[\xf9d\xe7\xa0\xeb\x82\xbe\x88<p\xfb\x14\xe7\xb3'
p26
ssS'test_unit_test_all'
p27
(dp28
g6
(dp29
g8
I0
sg9
S'test_unit_test_all.html'
p30
sg11
S'test/unit/test_all'
p31
sg13
g14
(g15
g16
NtRp32
(dp33
g19
I1
sg20
I0
sg21
I1
sg22
I0
sg23
I0
sg24
I0
sbssg25
S"\x8a\xa8\x01\xe1\xd6\xba\xe6\xdf\xccut'\xbd\xd1y\xd1"
p34
sssS'version'
p35
S'3.5.2'
p36
sS'settings'
p37
S'\xbf\xcf\x1fGb\x10\x965\x00\x17N>Y\x9d\xaf\t'
p38
sS'format'
p39
I1
s.